target datalayout = "e-m:e-p270:32:32-p271:32:32-p272:64:64-i64:64-i128:128-f80:128-n8:16:32:64-S128"
target triple = "x86_64-pc-linux-gnu"

%struct.ssl_connection_st = type { %struct.ssl_st, ptr, i32, ptr, ptr, ptr, i32, ptr, i32, i32, i32, i32, %struct.OSSL_TIME, %struct.OSSL_TIME, %struct.ossl_statem_st, i32, ptr, ptr, i64, i64, i64, %struct.ossl_quic_tls_callbacks_st, ptr, ptr, %struct.anon, ptr, ptr, ptr, i32, ptr, %struct.ssl_dane_st, ptr, ptr, ptr, ptr, i32, [64 x i8], [64 x i8], [64 x i8], [64 x i8], [64 x i8], [64 x i8], [64 x i8], [64 x i8], [64 x i8], [64 x i8], [64 x i8], [64 x i8], ptr, [64 x i8], i64, i32, i64, [32 x i8], ptr, ptr, ptr, i64, ptr, [32 x i8], i64, i32, ptr, ptr, i32, i32, ptr, ptr, ptr, ptr, ptr, i64, ptr, ptr, i64, i32, i32, i32, i64, i32, i32, i64, i64, i64, %struct.anon.1, ptr, i32, ptr, ptr, ptr, i32, ptr, ptr, ptr, i32, i32, i32, i32, ptr, i64, i32, ptr, %struct.srp_ctx_st, ptr, %struct.record_layer_st, ptr, ptr, ptr, ptr, i64, i32, i32, i32, i64, i64, i64, ptr, ptr, ptr, ptr, ptr, i64, ptr, i64, ptr, i64 }
%struct.ssl_st = type { i32, ptr, ptr, ptr, %struct.CRYPTO_REF_COUNT, ptr, %struct.crypto_ex_data_st }
%struct.CRYPTO_REF_COUNT = type { i32 }
%struct.crypto_ex_data_st = type { ptr, ptr }
%struct.OSSL_TIME = type { i64 }
%struct.ossl_statem_st = type { i32, i32, i32, i32, i32, i32, i32, i32, i32, i32, i32, i32, i32, ptr, ptr, ptr, i8 }
%struct.ossl_quic_tls_callbacks_st = type { ptr, ptr, ptr, ptr, ptr, ptr }
%struct.anon = type { i64, [32 x i8], [32 x i8], ptr, ptr, i32, i32, i32, i32, [2 x i8], i32, i32, i32, i32, %struct.anon.0, [64 x i8], i64, [64 x i8], i64, i32, i32, ptr, i64, ptr, i64, i32, i8, i8, i16, ptr, i16 }
%struct.anon.0 = type { [128 x i8], i64, [128 x i8], i64, i64, i32, ptr, ptr, [4 x ptr], [4 x i16], i64, i32, ptr, i64, ptr, i64, ptr, ptr, ptr, i32, i64, ptr, i32, ptr, i64, ptr, i64, ptr, i64, ptr, ptr, ptr, ptr, i64, i64, ptr, ptr, i32, i32, i32, i32 }
%struct.ssl_dane_st = type { ptr, ptr, ptr, ptr, ptr, i32, i32, i32, i64 }
%struct.anon.1 = type { [29 x i8], ptr, ptr, ptr, i32, ptr, i16, i32, %struct.anon.2, i32, i32, i64, ptr, i64, ptr, i64, ptr, i64, ptr, i64, ptr, i64, ptr, ptr, ptr, ptr, ptr, ptr, ptr, i64, ptr, i64, i32, i32, i32, i32, ptr, i64, i32, i8, i32, [4 x i32], i32, i8, i8, i8, i8 }
%struct.anon.2 = type { ptr, ptr, ptr, i64 }
%struct.srp_ctx_st = type { ptr, ptr, ptr, ptr, ptr, ptr, ptr, ptr, ptr, ptr, ptr, ptr, ptr, ptr, i32, i64 }
%struct.record_layer_st = type { ptr, ptr, ptr, ptr, ptr, ptr, ptr, ptr, i64, i32, i64, [4 x i8], i64, i64, i8, ptr, i32, ptr, ptr, ptr, i64, i64, i64, i64, [32 x %struct.tls_record_st] }
%struct.tls_record_st = type { ptr, i32, i8, ptr, ptr, i64, i64, i16, [8 x i8] }
%struct.ssl_method_st = type { i32, i32, i64, ptr, ptr, ptr, ptr, ptr, ptr, ptr, ptr, ptr, ptr, ptr, ptr, ptr, ptr, ptr, ptr, ptr, ptr, ptr, ptr, ptr, ptr, ptr, ptr, ptr, ptr, ptr, ptr, ptr }
%struct.ssl3_enc_method = type { ptr, ptr, ptr, ptr, ptr, i64, ptr, i64, ptr, ptr, i32, ptr, ptr, ptr }
%struct.ssl_session_st = type { i32, i64, [64 x i8], [512 x i8], i64, [32 x i8], i64, [32 x i8], ptr, ptr, i32, ptr, ptr, ptr, i64, %struct.OSSL_TIME, %struct.OSSL_TIME, %struct.OSSL_TIME, i32, ptr, i64, i32, %struct.crypto_ex_data_st, %struct.anon.3, ptr, ptr, i64, i32, ptr, ptr, ptr, %struct.CRYPTO_REF_COUNT }
%struct.anon.3 = type { ptr, ptr, i64, i64, i32, i32, ptr, i64, i8 }

@.str.1 = private unnamed_addr constant [36 x i8] c"../openssl/ssl/statem/statem_srvr.c\00", align 1
@__func__.create_ticket_prequel = private unnamed_addr constant [22 x i8] c"create_ticket_prequel\00", align 1

; Function Attrs: inlinehint nounwind uwtable
define internal i32 @ossl_time_compare(i64 %0, i64 %1) #3 {
  %3 = alloca i32, align 4
  %4 = alloca %struct.OSSL_TIME, align 8
  %5 = alloca %struct.OSSL_TIME, align 8
  %6 = getelementptr inbounds nuw %struct.OSSL_TIME, ptr %4, i32 0, i32 0
  store i64 %0, ptr %6, align 8
  %7 = getelementptr inbounds nuw %struct.OSSL_TIME, ptr %5, i32 0, i32 0
  store i64 %1, ptr %7, align 8
  %8 = getelementptr inbounds nuw %struct.OSSL_TIME, ptr %4, i32 0, i32 0
  %9 = load i64, ptr %8, align 8, !tbaa !317
  %10 = getelementptr inbounds nuw %struct.OSSL_TIME, ptr %5, i32 0, i32 0
  %11 = load i64, ptr %10, align 8, !tbaa !317
  %12 = icmp ugt i64 %9, %11
  br i1 %12, label %13, label %14

13:                                               ; preds = %2
  store i32 1, ptr %3, align 4
  br label %22

14:                                               ; preds = %2
  %15 = getelementptr inbounds nuw %struct.OSSL_TIME, ptr %4, i32 0, i32 0
  %16 = load i64, ptr %15, align 8, !tbaa !317
  %17 = getelementptr inbounds nuw %struct.OSSL_TIME, ptr %5, i32 0, i32 0
  %18 = load i64, ptr %17, align 8, !tbaa !317
  %19 = icmp ult i64 %16, %18
  br i1 %19, label %20, label %21

20:                                               ; preds = %14
  store i32 -1, ptr %3, align 4
  br label %22

21:                                               ; preds = %14
  store i32 0, ptr %3, align 4
  br label %22

22:                                               ; preds = %21, %20, %13
  %23 = load i32, ptr %3, align 4
  ret i32 %23
}

; Function Attrs: inlinehint nounwind uwtable
define internal i64 @ossl_ticks2time(i64 noundef %0) #3 {
  %2 = alloca %struct.OSSL_TIME, align 8
  %3 = alloca i64, align 8
  store i64 %0, ptr %3, align 8, !tbaa !9
  %4 = load i64, ptr %3, align 8, !tbaa !9
  %5 = getelementptr inbounds nuw %struct.OSSL_TIME, ptr %2, i32 0, i32 0
  store i64 %4, ptr %5, align 8, !tbaa !317
  %6 = getelementptr inbounds nuw %struct.OSSL_TIME, ptr %2, i32 0, i32 0
  %7 = load i64, ptr %6, align 8
  ret i64 %7
}

; Function Attrs: inlinehint nounwind uwtable
define internal i64 @ossl_time2ticks(i64 %0) #3 {
  %2 = alloca %struct.OSSL_TIME, align 8
  %3 = getelementptr inbounds nuw %struct.OSSL_TIME, ptr %2, i32 0, i32 0
  store i64 %0, ptr %3, align 8
  %4 = getelementptr inbounds nuw %struct.OSSL_TIME, ptr %2, i32 0, i32 0
  %5 = load i64, ptr %4, align 8, !tbaa !317
  ret i64 %5
}

; Function Attrs: nounwind uwtable
define internal i32 @create_ticket_prequel(ptr noundef %0, ptr noundef %1, i32 noundef %2, ptr noundef %3) #0 {
  %5 = alloca i32, align 4
  %6 = alloca ptr, align 8
  %7 = alloca ptr, align 8
  %8 = alloca i32, align 4
  %9 = alloca ptr, align 8
  %10 = alloca i32, align 4
  %11 = alloca %struct.OSSL_TIME, align 8
  %12 = alloca i32, align 4
  store ptr %0, ptr %6, align 8, !tbaa !11
  store ptr %1, ptr %7, align 8, !tbaa !145
  store i32 %2, ptr %8, align 4, !tbaa !13
  store ptr %3, ptr %9, align 8, !tbaa !168
  call void @llvm.lifetime.start.p0(i64 4, ptr %10) #9
  %13 = load ptr, ptr %6, align 8, !tbaa !11
  %14 = getelementptr inbounds nuw %struct.ssl_connection_st, ptr %13, i32 0, i32 54
  %15 = load ptr, ptr %14, align 8, !tbaa !97
  %16 = getelementptr inbounds nuw %struct.ssl_session_st, ptr %15, i32 0, i32 15
  %17 = getelementptr inbounds nuw %struct.OSSL_TIME, ptr %16, i32 0, i32 0
  %18 = load i64, ptr %17, align 8
  %19 = call i64 @ossl_time2ticks(i64 %18)
  %20 = udiv i64 %19, 1000000000
  %21 = trunc i64 %20 to i32
  store i32 %21, ptr %10, align 4, !tbaa !13
  %22 = load ptr, ptr %6, align 8, !tbaa !11
  %23 = getelementptr inbounds nuw %struct.ssl_connection_st, ptr %22, i32 0, i32 0
  %24 = getelementptr inbounds nuw %struct.ssl_st, ptr %23, i32 0, i32 3
  %25 = load ptr, ptr %24, align 8, !tbaa !17
  %26 = getelementptr inbounds nuw %struct.ssl_method_st, ptr %25, i32 0, i32 28
  %27 = load ptr, ptr %26, align 8, !tbaa !77
  %28 = getelementptr inbounds nuw %struct.ssl3_enc_method, ptr %27, i32 0, i32 10
  %29 = load i32, ptr %28, align 8, !tbaa !80
  %30 = and i32 %29, 8
  %31 = icmp ne i32 %30, 0
  br i1 %31, label %63, label %32

32:                                               ; preds = %4
  %33 = load ptr, ptr %6, align 8, !tbaa !11
  %34 = getelementptr inbounds nuw %struct.ssl_connection_st, ptr %33, i32 0, i32 0
  %35 = getelementptr inbounds nuw %struct.ssl_st, ptr %34, i32 0, i32 3
  %36 = load ptr, ptr %35, align 8, !tbaa !17
  %37 = getelementptr inbounds nuw %struct.ssl_method_st, ptr %36, i32 0, i32 0
  %38 = load i32, ptr %37, align 8, !tbaa !82
  %39 = icmp sge i32 %38, 772
  br i1 %39, label %40, label %63

40:                                               ; preds = %32
  %41 = load ptr, ptr %6, align 8, !tbaa !11
  %42 = getelementptr inbounds nuw %struct.ssl_connection_st, ptr %41, i32 0, i32 0
  %43 = getelementptr inbounds nuw %struct.ssl_st, ptr %42, i32 0, i32 3
  %44 = load ptr, ptr %43, align 8, !tbaa !17
  %45 = getelementptr inbounds nuw %struct.ssl_method_st, ptr %44, i32 0, i32 0
  %46 = load i32, ptr %45, align 8, !tbaa !82
  %47 = icmp ne i32 %46, 65536
  br i1 %47, label %48, label %63

48:                                               ; preds = %40
  %49 = load ptr, ptr %6, align 8, !tbaa !11
  %50 = getelementptr inbounds nuw %struct.ssl_connection_st, ptr %49, i32 0, i32 54
  %51 = load ptr, ptr %50, align 8, !tbaa !97
  %52 = getelementptr inbounds nuw %struct.ssl_session_st, ptr %51, i32 0, i32 15
  %53 = call i64 @ossl_ticks2time(i64 noundef 604800000000000)
  %54 = getelementptr inbounds nuw %struct.OSSL_TIME, ptr %11, i32 0, i32 0
  store i64 %53, ptr %54, align 8
  %55 = getelementptr inbounds nuw %struct.OSSL_TIME, ptr %52, i32 0, i32 0
  %56 = load i64, ptr %55, align 8
  %57 = getelementptr inbounds nuw %struct.OSSL_TIME, ptr %11, i32 0, i32 0
  %58 = load i64, ptr %57, align 8
  %59 = call i32 @ossl_time_compare(i64 %56, i64 %58)
  %60 = icmp sgt i32 %59, 0
  br i1 %60, label %61, label %62

61:                                               ; preds = %48
  store i32 604800, ptr %10, align 4, !tbaa !13
  br label %62

62:                                               ; preds = %61, %48
  br label %70

63:                                               ; preds = %40, %32, %4
  %64 = load ptr, ptr %6, align 8, !tbaa !11
  %65 = getelementptr inbounds nuw %struct.ssl_connection_st, ptr %64, i32 0, i32 28
  %66 = load i32, ptr %65, align 8, !tbaa !116
  %67 = icmp ne i32 %66, 0
  br i1 %67, label %68, label %69

68:                                               ; preds = %63
  store i32 0, ptr %10, align 4, !tbaa !13
  br label %69

69:                                               ; preds = %68, %63
  br label %70

70:                                               ; preds = %69, %62
  %71 = load ptr, ptr %7, align 8, !tbaa !145
  %72 = load i32, ptr %10, align 4, !tbaa !13
  %73 = zext i32 %72 to i64
  %74 = call i32 @WPACKET_put_bytes__(ptr noundef %71, i64 noundef %73, i64 noundef 4)
  %75 = icmp ne i32 %74, 0
  br i1 %75, label %78, label %76

76:                                               ; preds = %70
  call void @ERR_new()
  call void @ERR_set_debug(ptr noundef @.str.1, i32 noundef 3903, ptr noundef @__func__.create_ticket_prequel)
  %77 = load ptr, ptr %6, align 8, !tbaa !11
  call void (ptr, i32, i32, ptr, ...) @ossl_statem_fatal(ptr noundef %77, i32 noundef 80, i32 noundef 786691, ptr noundef null)
  store i32 0, ptr %5, align 4
  store i32 1, ptr %12, align 4
  br label %126

78:                                               ; preds = %70
  %79 = load ptr, ptr %6, align 8, !tbaa !11
  %80 = getelementptr inbounds nuw %struct.ssl_connection_st, ptr %79, i32 0, i32 0
  %81 = getelementptr inbounds nuw %struct.ssl_st, ptr %80, i32 0, i32 3
  %82 = load ptr, ptr %81, align 8, !tbaa !17
  %83 = getelementptr inbounds nuw %struct.ssl_method_st, ptr %82, i32 0, i32 28
  %84 = load ptr, ptr %83, align 8, !tbaa !77
  %85 = getelementptr inbounds nuw %struct.ssl3_enc_method, ptr %84, i32 0, i32 10
  %86 = load i32, ptr %85, align 8, !tbaa !80
  %87 = and i32 %86, 8
  %88 = icmp ne i32 %87, 0
  br i1 %88, label %119, label %89

89:                                               ; preds = %78
  %90 = load ptr, ptr %6, align 8, !tbaa !11
  %91 = getelementptr inbounds nuw %struct.ssl_connection_st, ptr %90, i32 0, i32 0
  %92 = getelementptr inbounds nuw %struct.ssl_st, ptr %91, i32 0, i32 3
  %93 = load ptr, ptr %92, align 8, !tbaa !17
  %94 = getelementptr inbounds nuw %struct.ssl_method_st, ptr %93, i32 0, i32 0
  %95 = load i32, ptr %94, align 8, !tbaa !82
  %96 = icmp sge i32 %95, 772
  br i1 %96, label %97, label %119

97:                                               ; preds = %89
  %98 = load ptr, ptr %6, align 8, !tbaa !11
  %99 = getelementptr inbounds nuw %struct.ssl_connection_st, ptr %98, i32 0, i32 0
  %100 = getelementptr inbounds nuw %struct.ssl_st, ptr %99, i32 0, i32 3
  %101 = load ptr, ptr %100, align 8, !tbaa !17
  %102 = getelementptr inbounds nuw %struct.ssl_method_st, ptr %101, i32 0, i32 0
  %103 = load i32, ptr %102, align 8, !tbaa !82
  %104 = icmp ne i32 %103, 65536
  br i1 %104, label %105, label %119

105:                                              ; preds = %97
  %106 = load ptr, ptr %7, align 8, !tbaa !145
  %107 = load i32, ptr %8, align 4, !tbaa !13
  %108 = zext i32 %107 to i64
  %109 = call i32 @WPACKET_put_bytes__(ptr noundef %106, i64 noundef %108, i64 noundef 4)
  %110 = icmp ne i32 %109, 0
  br i1 %110, label %111, label %116

111:                                              ; preds = %105
  %112 = load ptr, ptr %7, align 8, !tbaa !145
  %113 = load ptr, ptr %9, align 8, !tbaa !168
  %114 = call i32 @WPACKET_sub_memcpy__(ptr noundef %112, ptr noundef %113, i64 noundef 8, i64 noundef 1)
  %115 = icmp ne i32 %114, 0
  br i1 %115, label %118, label %116

116:                                              ; preds = %111, %105
  call void @ERR_new()
  call void @ERR_set_debug(ptr noundef @.str.1, i32 noundef 3910, ptr noundef @__func__.create_ticket_prequel)
  %117 = load ptr, ptr %6, align 8, !tbaa !11
  call void (ptr, i32, i32, ptr, ...) @ossl_statem_fatal(ptr noundef %117, i32 noundef 80, i32 noundef 786691, ptr noundef null)
  store i32 0, ptr %5, align 4
  store i32 1, ptr %12, align 4
  br label %126

118:                                              ; preds = %111
  br label %119

119:                                              ; preds = %118, %97, %89, %78
  %120 = load ptr, ptr %7, align 8, !tbaa !145
  %121 = call i32 @WPACKET_start_sub_packet_len__(ptr noundef %120, i64 noundef 2)
  %122 = icmp ne i32 %121, 0
  br i1 %122, label %125, label %123

123:                                              ; preds = %119
  call void @ERR_new()
  call void @ERR_set_debug(ptr noundef @.str.1, i32 noundef 3917, ptr noundef @__func__.create_ticket_prequel)
  %124 = load ptr, ptr %6, align 8, !tbaa !11
  call void (ptr, i32, i32, ptr, ...) @ossl_statem_fatal(ptr noundef %124, i32 noundef 80, i32 noundef 786691, ptr noundef null)
  store i32 0, ptr %5, align 4
  store i32 1, ptr %12, align 4
  br label %126

125:                                              ; preds = %119
  store i32 1, ptr %5, align 4
  store i32 1, ptr %12, align 4
  br label %126

126:                                              ; preds = %125, %123, %116, %76
  call void @llvm.lifetime.end.p0(i64 4, ptr %10) #9
  %127 = load i32, ptr %5, align 4
  ret i32 %127
}