; Function Attrs: nounwind uwtable
define internal fastcc range(i32 0, 2) i32 @create_ticket_prequel(ptr noundef %0, ptr noundef %1, i32 noundef %2, ptr noundef nonnull %3) unnamed_addr #1 {
  %5 = getelementptr inbounds nuw i8, ptr %0, i64 2304
  %6 = load ptr, ptr %5, align 8, !tbaa !79
  %7 = getelementptr inbounds nuw i8, ptr %6, i64 728
  %8 = load i64, ptr %7, align 8
  %9 = udiv i64 %8, 1000000000
  %10 = getelementptr inbounds nuw i8, ptr %0, i64 24
  %11 = load ptr, ptr %10, align 8, !tbaa !3
  %12 = getelementptr inbounds nuw i8, ptr %11, i64 216
  %13 = load ptr, ptr %12, align 8, !tbaa !69
  %14 = getelementptr inbounds nuw i8, ptr %13, i64 80
  %15 = load i32, ptr %14, align 8, !tbaa !72
  %16 = and i32 %15, 8
  %.not = icmp eq i32 %16, 0
  br i1 %.not, label %17, label %22

17:                                               ; preds = %4
  %18 = load i32, ptr %11, align 8, !tbaa !74
  %19 = icmp slt i32 %18, 772
  %.not22 = icmp eq i32 %18, 65536
  %or.cond = or i1 %19, %.not22
  br i1 %or.cond, label %22, label %20

20:                                               ; preds = %17
  %21 = icmp ugt i64 %8, 604800000000000
  %spec.select = select i1 %21, i64 604800, i64 %9
  br label %25

22:                                               ; preds = %17, %4
  %23 = getelementptr inbounds nuw i8, ptr %0, i64 1288
  %24 = load i32, ptr %23, align 8, !tbaa !100
  %.not23 = icmp eq i32 %24, 0
  %spec.select30 = select i1 %.not23, i64 %9, i64 0
  br label %25

25:                                               ; preds = %22, %20
  %.019 = phi i64 [ %spec.select, %20 ], [ %spec.select30, %22 ]
  %26 = and i64 %.019, 4294967295
  %27 = tail call i32 @WPACKET_put_bytes__(ptr noundef %1, i64 noundef %26, i64 noundef 4) #12
  %.not24 = icmp eq i32 %27, 0
  br i1 %.not24, label %.sink.split, label %28

28:                                               ; preds = %25
  %29 = load ptr, ptr %10, align 8, !tbaa !3
  %30 = getelementptr inbounds nuw i8, ptr %29, i64 216
  %31 = load ptr, ptr %30, align 8, !tbaa !69
  %32 = getelementptr inbounds nuw i8, ptr %31, i64 80
  %33 = load i32, ptr %32, align 8, !tbaa !72
  %34 = and i32 %33, 8
  %.not25 = icmp eq i32 %34, 0
  br i1 %.not25, label %35, label %43

35:                                               ; preds = %28
  %36 = load i32, ptr %29, align 8, !tbaa !74
  %37 = icmp slt i32 %36, 772
  %.not26 = icmp eq i32 %36, 65536
  %or.cond31 = or i1 %37, %.not26
  br i1 %or.cond31, label %43, label %38

38:                                               ; preds = %35
  %39 = zext i32 %2 to i64
  %40 = tail call i32 @WPACKET_put_bytes__(ptr noundef %1, i64 noundef %39, i64 noundef 4) #12
  %.not27 = icmp eq i32 %40, 0
  br i1 %.not27, label %.sink.split, label %41

41:                                               ; preds = %38
  %42 = tail call i32 @WPACKET_sub_memcpy__(ptr noundef %1, ptr noundef nonnull %3, i64 noundef 8, i64 noundef 1) #12
  %.not28 = icmp eq i32 %42, 0
  br i1 %.not28, label %.sink.split, label %43

43:                                               ; preds = %41, %35, %28
  %44 = tail call i32 @WPACKET_start_sub_packet_len__(ptr noundef %1, i64 noundef 2) #12
  %.not29 = icmp eq i32 %44, 0
  br i1 %.not29, label %.sink.split, label %45

.sink.split:                                      ; preds = %43, %38, %41, %25
  %.sink = phi i32 [ 3903, %25 ], [ 3910, %41 ], [ 3910, %38 ], [ 3917, %43 ]
  tail call void @ERR_new() #12
  tail call void @ERR_set_debug(ptr noundef nonnull @.str.1, i32 noundef %.sink, ptr noundef nonnull @__func__.create_ticket_prequel) #12
  tail call void (ptr, i32, i32, ptr, ...) @ossl_statem_fatal(ptr noundef nonnull %0, i32 noundef 80, i32 noundef 786691, ptr noundef null) #12
  br label %45

45:                                               ; preds = %.sink.split, %43
  %.0 = phi i32 [ 1, %43 ], [ 0, %.sink.split ]
  ret i32 %.0
}